target datalayout = "e-m:e-p270:32:32-p271:32:32-p272:64:64-i64:64-i128:128-f80:128-n8:16:32:64-S128"
target triple = "x86_64-pc-linux-gnu"

%struct.expert_field = type { i32, i32 }

@hf_pktc_app_spec_data = internal global i32 0, align 4
@hf_pktc_snmpEngineID_len = internal global i32 0, align 4
@hf_pktc_snmpEngineID = internal global i32 0, align 4
@hf_pktc_snmpEngineBoots = internal global i32 0, align 4
@hf_pktc_snmpEngineTime = internal global i32 0, align 4
@hf_pktc_usmUserName_len = internal global i32 0, align 4
@hf_pktc_usmUserName = internal global i32 0, align 4
@hf_pktc_ipsec_spi = internal global i32 0, align 4
@ett_pktc_app_spec_data = internal global i32 0, align 4
@ett_pktc_engineid = internal global i32 0, align 4
@ei_pktc_unknown_kmmid = internal global %struct.expert_field zeroinitializer, align 4
@ei_pktc_unknown_doi = internal global %struct.expert_field zeroinitializer, align 4

; Function Attrs: null_pointer_is_valid sspstrong uwtable
define internal i32 @dissect_pktc_app_specific_data(ptr noundef %0, ptr noundef %1, ptr noundef %2, i32 noundef %3, i8 noundef zeroext %4, i8 noundef zeroext %5) #0 {
  %7 = alloca ptr, align 8
  %8 = alloca ptr, align 8
  %9 = alloca ptr, align 8
  %10 = alloca i32, align 4
  %11 = alloca i8, align 1
  %12 = alloca i8, align 1
  %13 = alloca i32, align 4
  %14 = alloca ptr, align 8
  %15 = alloca ptr, align 8
  %16 = alloca ptr, align 8
  %17 = alloca ptr, align 8
  %18 = alloca i8, align 1
  store ptr %0, ptr %7, align 8
  store ptr %1, ptr %8, align 8
  store ptr %2, ptr %9, align 8
  store i32 %3, ptr %10, align 4
  store i8 %4, ptr %11, align 1
  store i8 %5, ptr %12, align 1
  call void @llvm.lifetime.start.p0(i64 4, ptr %13) #5
  %19 = load i32, ptr %10, align 4
  store i32 %19, ptr %13, align 4
  call void @llvm.lifetime.start.p0(i64 8, ptr %14) #5
  call void @llvm.lifetime.start.p0(i64 8, ptr %15) #5
  store ptr null, ptr %15, align 8
  call void @llvm.lifetime.start.p0(i64 8, ptr %16) #5
  call void @llvm.lifetime.start.p0(i64 8, ptr %17) #5
  store ptr null, ptr %17, align 8
  call void @llvm.lifetime.start.p0(i64 1, ptr %18) #5
  %20 = load ptr, ptr %8, align 8
  %21 = load i32, ptr @hf_pktc_app_spec_data, align 4
  %22 = load ptr, ptr %9, align 8
  %23 = load i32, ptr %10, align 4
  %24 = call ptr @proto_tree_add_item(ptr noundef %20, i32 noundef %21, ptr noundef %22, i32 noundef %23, i32 noundef -1, i32 noundef 0)
  store ptr %24, ptr %16, align 8
  %25 = load ptr, ptr %16, align 8
  %26 = load i32, ptr @ett_pktc_app_spec_data, align 4
  %27 = call ptr @proto_item_add_subtree(ptr noundef %25, i32 noundef %26)
  store ptr %27, ptr %14, align 8
  %28 = load i8, ptr %11, align 1
  %29 = zext i8 %28 to i32
  switch i32 %29, label %129 [
    i32 2, label %30
    i32 1, label %111
  ]

30:                                               ; preds = %6
  %31 = load i8, ptr %12, align 1
  %32 = zext i8 %31 to i32
  switch i32 %32, label %104 [
    i32 2, label %33
    i32 3, label %33
  ]

33:                                               ; preds = %30, %30
  %34 = load ptr, ptr %9, align 8
  %35 = load i32, ptr %10, align 4
  %36 = call zeroext i8 @tvb_get_uint8(ptr noundef %34, i32 noundef %35)
  store i8 %36, ptr %18, align 1
  %37 = load ptr, ptr %14, align 8
  %38 = load i32, ptr @hf_pktc_snmpEngineID_len, align 4
  %39 = load ptr, ptr %9, align 8
  %40 = load i32, ptr %10, align 4
  %41 = load i8, ptr %18, align 1
  %42 = zext i8 %41 to i32
  %43 = call ptr @proto_tree_add_uint(ptr noundef %37, i32 noundef %38, ptr noundef %39, i32 noundef %40, i32 noundef 1, i32 noundef %42)
  %44 = load i32, ptr %10, align 4
  %45 = add i32 %44, 1
  store i32 %45, ptr %10, align 4
  %46 = load ptr, ptr %14, align 8
  %47 = load i32, ptr @hf_pktc_snmpEngineID, align 4
  %48 = load ptr, ptr %9, align 8
  %49 = load i32, ptr %10, align 4
  %50 = load i8, ptr %18, align 1
  %51 = zext i8 %50 to i32
  %52 = call ptr @proto_tree_add_item(ptr noundef %46, i32 noundef %47, ptr noundef %48, i32 noundef %49, i32 noundef %51, i32 noundef 0)
  store ptr %52, ptr %17, align 8
  %53 = load ptr, ptr %17, align 8
  %54 = load i32, ptr @ett_pktc_engineid, align 4
  %55 = call ptr @proto_item_add_subtree(ptr noundef %53, i32 noundef %54)
  store ptr %55, ptr %15, align 8
  %56 = load ptr, ptr %15, align 8
  %57 = load ptr, ptr %7, align 8
  %58 = load ptr, ptr %9, align 8
  %59 = load i32, ptr %10, align 4
  %60 = load i8, ptr %18, align 1
  %61 = zext i8 %60 to i32
  %62 = call i32 @dissect_snmp_engineid(ptr noundef %56, ptr noundef %57, ptr noundef %58, i32 noundef %59, i32 noundef %61)
  %63 = load i8, ptr %18, align 1
  %64 = zext i8 %63 to i32
  %65 = load i32, ptr %10, align 4
  %66 = add i32 %65, %64
  store i32 %66, ptr %10, align 4
  %67 = load ptr, ptr %14, align 8
  %68 = load i32, ptr @hf_pktc_snmpEngineBoots, align 4
  %69 = load ptr, ptr %9, align 8
  %70 = load i32, ptr %10, align 4
  %71 = call ptr @proto_tree_add_item(ptr noundef %67, i32 noundef %68, ptr noundef %69, i32 noundef %70, i32 noundef 4, i32 noundef 0)
  %72 = load i32, ptr %10, align 4
  %73 = add i32 %72, 4
  store i32 %73, ptr %10, align 4
  %74 = load ptr, ptr %14, align 8
  %75 = load i32, ptr @hf_pktc_snmpEngineTime, align 4
  %76 = load ptr, ptr %9, align 8
  %77 = load i32, ptr %10, align 4
  %78 = call ptr @proto_tree_add_item(ptr noundef %74, i32 noundef %75, ptr noundef %76, i32 noundef %77, i32 noundef 4, i32 noundef 0)
  %79 = load i32, ptr %10, align 4
  %80 = add i32 %79, 4
  store i32 %80, ptr %10, align 4
  %81 = load ptr, ptr %9, align 8
  %82 = load i32, ptr %10, align 4
  %83 = call zeroext i8 @tvb_get_uint8(ptr noundef %81, i32 noundef %82)
  store i8 %83, ptr %18, align 1
  %84 = load ptr, ptr %14, align 8
  %85 = load i32, ptr @hf_pktc_usmUserName_len, align 4
  %86 = load ptr, ptr %9, align 8
  %87 = load i32, ptr %10, align 4
  %88 = load i8, ptr %18, align 1
  %89 = zext i8 %88 to i32
  %90 = call ptr @proto_tree_add_uint(ptr noundef %84, i32 noundef %85, ptr noundef %86, i32 noundef %87, i32 noundef 1, i32 noundef %89)
  %91 = load i32, ptr %10, align 4
  %92 = add i32 %91, 1
  store i32 %92, ptr %10, align 4
  %93 = load ptr, ptr %14, align 8
  %94 = load i32, ptr @hf_pktc_usmUserName, align 4
  %95 = load ptr, ptr %9, align 8
  %96 = load i32, ptr %10, align 4
  %97 = load i8, ptr %18, align 1
  %98 = zext i8 %97 to i32
  %99 = call ptr @proto_tree_add_item(ptr noundef %93, i32 noundef %94, ptr noundef %95, i32 noundef %96, i32 noundef %98, i32 noundef 0)
  %100 = load i8, ptr %18, align 1
  %101 = zext i8 %100 to i32
  %102 = load i32, ptr %10, align 4
  %103 = add i32 %102, %101
  store i32 %103, ptr %10, align 4
  br label %110

104:                                              ; preds = %30
  %105 = load ptr, ptr %14, align 8
  %106 = load ptr, ptr %7, align 8
  %107 = load ptr, ptr %9, align 8
  %108 = load i32, ptr %10, align 4
  %109 = call ptr @proto_tree_add_expert(ptr noundef %105, ptr noundef %106, ptr noundef @ei_pktc_unknown_kmmid, ptr noundef %107, i32 noundef %108, i32 noundef 1)
  br label %110

110:                                              ; preds = %104, %33
  br label %135

111:                                              ; preds = %6
  %112 = load i8, ptr %12, align 1
  %113 = zext i8 %112 to i32
  switch i32 %113, label %122 [
    i32 2, label %114
    i32 3, label %114
    i32 5, label %114
  ]

114:                                              ; preds = %111, %111, %111
  %115 = load ptr, ptr %14, align 8
  %116 = load i32, ptr @hf_pktc_ipsec_spi, align 4
  %117 = load ptr, ptr %9, align 8
  %118 = load i32, ptr %10, align 4
  %119 = call ptr @proto_tree_add_item(ptr noundef %115, i32 noundef %116, ptr noundef %117, i32 noundef %118, i32 noundef 4, i32 noundef 0)
  %120 = load i32, ptr %10, align 4
  %121 = add i32 %120, 4
  store i32 %121, ptr %10, align 4
  br label %128

122:                                              ; preds = %111
  %123 = load ptr, ptr %14, align 8
  %124 = load ptr, ptr %7, align 8
  %125 = load ptr, ptr %9, align 8
  %126 = load i32, ptr %10, align 4
  %127 = call ptr @proto_tree_add_expert(ptr noundef %123, ptr noundef %124, ptr noundef @ei_pktc_unknown_kmmid, ptr noundef %125, i32 noundef %126, i32 noundef 1)
  br label %128

128:                                              ; preds = %122, %114
  br label %135

129:                                              ; preds = %6
  %130 = load ptr, ptr %14, align 8
  %131 = load ptr, ptr %7, align 8
  %132 = load ptr, ptr %9, align 8
  %133 = load i32, ptr %10, align 4
  %134 = call ptr @proto_tree_add_expert(ptr noundef %130, ptr noundef %131, ptr noundef @ei_pktc_unknown_doi, ptr noundef %132, i32 noundef %133, i32 noundef 1)
  br label %135

135:                                              ; preds = %129, %128, %110
  %136 = load ptr, ptr %16, align 8
  %137 = load i32, ptr %10, align 4
  %138 = load i32, ptr %13, align 4
  %139 = sub i32 %137, %138
  call void @proto_item_set_len(ptr noundef %136, i32 noundef %139)
  %140 = load i32, ptr %10, align 4
  call void @llvm.lifetime.end.p0(i64 1, ptr %18) #5
  call void @llvm.lifetime.end.p0(i64 8, ptr %17) #5
  call void @llvm.lifetime.end.p0(i64 8, ptr %16) #5
  call void @llvm.lifetime.end.p0(i64 8, ptr %15) #5
  call void @llvm.lifetime.end.p0(i64 8, ptr %14) #5
  call void @llvm.lifetime.end.p0(i64 4, ptr %13) #5
  ret i32 %140
}